target datalayout = "e-m:e-p270:32:32-p271:32:32-p272:64:64-i64:64-i128:128-f80:128-n8:16:32:64-S128"
target triple = "x86_64-pc-linux-gnu"

%struct._packet_info = type { ptr, ptr, i32, i32, %struct.nstime_t, %struct.nstime_t, %struct.nstime_t, i8, ptr, ptr, ptr, ptr, %struct._address, %struct._address, %struct._address, %struct._address, %struct._address, %struct._address, i32, ptr, i8, [3 x i8], %struct.anon, i32, i32, i32, i32, ptr, i8, ptr, ptr, i16, i16, i32, i32, i16, i32, i32, ptr, ptr, ptr, i8, i8, i16, i16, i16, i32, i16, i16, ptr, ptr, ptr, ptr, ptr, i32, i32 }
%struct.nstime_t = type { i64, i32 }
%struct._address = type { i32, i32, ptr, ptr }
%struct.anon = type { i8, [3 x i8] }

@.str = private unnamed_addr constant [11 x i8] c"attributes\00", align 1
@hf_nfs_symlink_to = internal global i32 0, align 4
@.str.2265 = private unnamed_addr constant [5 x i8] c"from\00", align 1
@.str.2275 = private unnamed_addr constant [27 x i8] c", From DH: 0x%08x/%s To %s\00", align 1
@.str.2276 = private unnamed_addr constant [40 x i8] c", SYMLINK Call From DH: 0x%08x/%s To %s\00", align 1

; Function Attrs: null_pointer_is_valid sspstrong uwtable
define internal i32 @dissect_path(ptr noundef %0, i32 noundef %1, ptr noundef %2, i32 noundef %3, ptr noundef %4) #0 {
  %6 = alloca ptr, align 8
  %7 = alloca i32, align 4
  %8 = alloca ptr, align 8
  %9 = alloca i32, align 4
  %10 = alloca ptr, align 8
  store ptr %0, ptr %6, align 8
  store i32 %1, ptr %7, align 4
  store ptr %2, ptr %8, align 8
  store i32 %3, ptr %9, align 4
  store ptr %4, ptr %10, align 8
  %11 = load ptr, ptr %6, align 8
  %12 = load ptr, ptr %8, align 8
  %13 = load i32, ptr %9, align 4
  %14 = load i32, ptr %7, align 4
  %15 = load ptr, ptr %10, align 8
  %16 = call i32 @dissect_rpc_string(ptr noundef %11, ptr noundef %12, i32 noundef %13, i32 noundef %14, ptr noundef %15)
  store i32 %16, ptr %7, align 4
  %17 = load i32, ptr %7, align 4
  ret i32 %17
}

; Function Attrs: null_pointer_is_valid sspstrong uwtable
define internal i32 @dissect_nfs2_symlink_call(ptr noundef %0, ptr noundef %1, ptr noundef %2, ptr noundef %3) #0 {
  %5 = alloca ptr, align 8
  %6 = alloca ptr, align 8
  %7 = alloca ptr, align 8
  %8 = alloca ptr, align 8
  %9 = alloca i32, align 4
  %10 = alloca ptr, align 8
  %11 = alloca ptr, align 8
  %12 = alloca i32, align 4
  store ptr %0, ptr %5, align 8
  store ptr %1, ptr %6, align 8
  store ptr %2, ptr %7, align 8
  store ptr %3, ptr %8, align 8
  call void @llvm.lifetime.start.p0(i64 4, ptr %9) #16
  call void @llvm.lifetime.start.p0(i64 8, ptr %10) #16
  store ptr null, ptr %10, align 8
  call void @llvm.lifetime.start.p0(i64 8, ptr %11) #16
  store ptr null, ptr %11, align 8
  call void @llvm.lifetime.start.p0(i64 4, ptr %12) #16
  store i32 0, ptr %12, align 4
  %13 = load ptr, ptr %5, align 8
  %14 = load i32, ptr %12, align 4
  %15 = load ptr, ptr %6, align 8
  %16 = load ptr, ptr %7, align 8
  %17 = load ptr, ptr %8, align 8
  %18 = call i32 @dissect_diropargs(ptr noundef %13, i32 noundef %14, ptr noundef %15, ptr noundef %16, ptr noundef @.str.2265, ptr noundef %9, ptr noundef %10, ptr noundef %17)
  store i32 %18, ptr %12, align 4
  %19 = load ptr, ptr %5, align 8
  %20 = load i32, ptr %12, align 4
  %21 = load ptr, ptr %7, align 8
  %22 = load i32, ptr @hf_nfs_symlink_to, align 4
  %23 = call i32 @dissect_path(ptr noundef %19, i32 noundef %20, ptr noundef %21, i32 noundef %22, ptr noundef %11)
  store i32 %23, ptr %12, align 4
  %24 = load ptr, ptr %5, align 8
  %25 = load i32, ptr %12, align 4
  %26 = load ptr, ptr %7, align 8
  %27 = call i32 @dissect_nfs2_sattr(ptr noundef %24, i32 noundef %25, ptr noundef %26, ptr noundef @.str)
  store i32 %27, ptr %12, align 4
  %28 = load ptr, ptr %6, align 8
  %29 = getelementptr inbounds nuw %struct._packet_info, ptr %28, i32 0, i32 1
  %30 = load ptr, ptr %29, align 8
  %31 = load i32, ptr %9, align 4
  %32 = load ptr, ptr %10, align 8
  %33 = load ptr, ptr %11, align 8
  call void (ptr, i32, ptr, ...) @col_append_fstr(ptr noundef %30, i32 noundef 25, ptr noundef @.str.2275, i32 noundef %31, ptr noundef %32, ptr noundef %33)
  %34 = load ptr, ptr %7, align 8
  %35 = load i32, ptr %9, align 4
  %36 = load ptr, ptr %10, align 8
  %37 = load ptr, ptr %11, align 8
  call void (ptr, ptr, ...) @proto_item_append_text(ptr noundef %34, ptr noundef @.str.2276, i32 noundef %35, ptr noundef %36, ptr noundef %37)
  %38 = load i32, ptr %12, align 4
  call void @llvm.lifetime.end.p0(i64 4, ptr %12) #16
  call void @llvm.lifetime.end.p0(i64 8, ptr %11) #16
  call void @llvm.lifetime.end.p0(i64 8, ptr %10) #16
  call void @llvm.lifetime.end.p0(i64 4, ptr %9) #16
  ret i32 %38
}