; Function Attrs: null_pointer_is_valid sspstrong uwtable
define internal noundef i32 @dissect_nfs2_symlink_call(ptr noundef %0, ptr noundef %1, ptr noundef %2, ptr noundef readonly captures(none) %3) #0 {
  %5 = alloca i32, align 4
  %6 = alloca ptr, align 8
  %7 = alloca ptr, align 8
  call void @llvm.lifetime.start.p0(i64 4, ptr nonnull %5) #22
  call void @llvm.lifetime.start.p0(i64 8, ptr nonnull %6) #22
  store ptr null, ptr %6, align 8
  call void @llvm.lifetime.start.p0(i64 8, ptr nonnull %7) #22
  store ptr null, ptr %7, align 8
  %8 = call fastcc i32 @dissect_diropargs(ptr noundef %0, i32 noundef 0, ptr noundef %1, ptr noundef %2, ptr noundef nonnull @.str.2265, ptr noundef nonnull %5, ptr noundef nonnull %6, ptr noundef %3)
  %9 = load i32, ptr @hf_nfs_symlink_to, align 4
  %10 = call i32 @dissect_rpc_string(ptr noundef %0, ptr noundef %2, i32 noundef %9, i32 noundef %8, ptr noundef nonnull %7)
  %11 = call fastcc i32 @dissect_nfs2_sattr(ptr noundef %0, i32 noundef %10, ptr noundef %2)
  %12 = getelementptr inbounds nuw i8, ptr %1, i64 8
  %13 = load ptr, ptr %12, align 8
  %14 = load i32, ptr %5, align 4
  %15 = load ptr, ptr %6, align 8
  %16 = load ptr, ptr %7, align 8
  call void (ptr, i32, ptr, ...) @col_append_fstr(ptr noundef %13, i32 noundef 25, ptr noundef nonnull @.str.2275, i32 noundef %14, ptr noundef %15, ptr noundef %16)
  %17 = load i32, ptr %5, align 4
  %18 = load ptr, ptr %6, align 8
  %19 = load ptr, ptr %7, align 8
  call void (ptr, ptr, ...) @proto_item_append_text(ptr noundef %2, ptr noundef nonnull @.str.2276, i32 noundef %17, ptr noundef %18, ptr noundef %19)
  call void @llvm.lifetime.end.p0(i64 8, ptr nonnull %7) #22
  call void @llvm.lifetime.end.p0(i64 8, ptr nonnull %6) #22
  call void @llvm.lifetime.end.p0(i64 4, ptr nonnull %5) #22
  ret i32 %11
}